target datalayout = "e-m:e-p270:32:32-p271:32:32-p272:64:64-i64:64-i128:128-f80:128-n8:16:32:64-S128"
target triple = "x86_64-pc-linux-gnu"

%struct._ir_strtab = type { ptr, i32, i32, i32, i32, ptr, i32, i32 }
%struct._ir_strtab_bucket = type { i32, i32, ptr, i32, i32 }

; Function Attrs: nounwind uwtable
define internal void @ir_strtab_grow_buf(ptr noundef %0, i32 noundef %1) #0 {
  %3 = alloca ptr, align 8
  %4 = alloca i32, align 4
  %5 = alloca i64, align 8
  %6 = alloca i64, align 8
  %7 = alloca ptr, align 8
  %8 = alloca i32, align 4
  store ptr %0, ptr %3, align 8, !tbaa !4
  store i32 %1, ptr %4, align 4, !tbaa !9
  call void @llvm.lifetime.start.p0(i64 8, ptr %5) #10
  %9 = load ptr, ptr %3, align 8, !tbaa !4
  %10 = getelementptr inbounds nuw %struct._ir_strtab, ptr %9, i32 0, i32 5
  %11 = load ptr, ptr %10, align 8, !tbaa !19
  %12 = ptrtoint ptr %11 to i64
  store i64 %12, ptr %5, align 8, !tbaa !30
  br label %13

13:                                               ; preds = %18, %2
  %14 = load ptr, ptr %3, align 8, !tbaa !4
  %15 = getelementptr inbounds nuw %struct._ir_strtab, ptr %14, i32 0, i32 6
  %16 = load i32, ptr %15, align 8, !tbaa !20
  %17 = mul i32 %16, 2
  store i32 %17, ptr %15, align 8, !tbaa !20
  br label %18

18:                                               ; preds = %13
  %19 = load ptr, ptr %3, align 8, !tbaa !4
  %20 = getelementptr inbounds nuw %struct._ir_strtab, ptr %19, i32 0, i32 6
  %21 = load i32, ptr %20, align 8, !tbaa !20
  %22 = load ptr, ptr %3, align 8, !tbaa !4
  %23 = getelementptr inbounds nuw %struct._ir_strtab, ptr %22, i32 0, i32 7
  %24 = load i32, ptr %23, align 4, !tbaa !21
  %25 = sub i32 %21, %24
  %26 = load i32, ptr %4, align 4, !tbaa !9
  %27 = add i32 %26, 1
  %28 = icmp ult i32 %25, %27
  %29 = xor i1 %28, true
  %30 = xor i1 %29, true
  %31 = zext i1 %30 to i32
  %32 = sext i32 %31 to i64
  %33 = call i64 @llvm.expect.i64(i64 %32, i64 0)
  %34 = icmp ne i64 %33, 0
  br i1 %34, label %13, label %35

35:                                               ; preds = %18
  %36 = load ptr, ptr %3, align 8, !tbaa !4
  %37 = getelementptr inbounds nuw %struct._ir_strtab, ptr %36, i32 0, i32 5
  %38 = load ptr, ptr %37, align 8, !tbaa !19
  %39 = load ptr, ptr %3, align 8, !tbaa !4
  %40 = getelementptr inbounds nuw %struct._ir_strtab, ptr %39, i32 0, i32 6
  %41 = load i32, ptr %40, align 8, !tbaa !20
  %42 = zext i32 %41 to i64
  %43 = call ptr @_erealloc(ptr noundef %38, i64 noundef %42) #13
  %44 = load ptr, ptr %3, align 8, !tbaa !4
  %45 = getelementptr inbounds nuw %struct._ir_strtab, ptr %44, i32 0, i32 5
  store ptr %43, ptr %45, align 8, !tbaa !19
  %46 = load ptr, ptr %3, align 8, !tbaa !4
  %47 = getelementptr inbounds nuw %struct._ir_strtab, ptr %46, i32 0, i32 5
  %48 = load ptr, ptr %47, align 8, !tbaa !19
  %49 = ptrtoint ptr %48 to i64
  %50 = load i64, ptr %5, align 8, !tbaa !30
  %51 = icmp ne i64 %49, %50
  br i1 %51, label %52, label %80

52:                                               ; preds = %35
  call void @llvm.lifetime.start.p0(i64 8, ptr %6) #10
  %53 = load ptr, ptr %3, align 8, !tbaa !4
  %54 = getelementptr inbounds nuw %struct._ir_strtab, ptr %53, i32 0, i32 5
  %55 = load ptr, ptr %54, align 8, !tbaa !19
  %56 = ptrtoint ptr %55 to i64
  %57 = load i64, ptr %5, align 8, !tbaa !30
  %58 = sub nsw i64 %56, %57
  store i64 %58, ptr %6, align 8, !tbaa !30
  call void @llvm.lifetime.start.p0(i64 8, ptr %7) #10
  %59 = load ptr, ptr %3, align 8, !tbaa !4
  %60 = getelementptr inbounds nuw %struct._ir_strtab, ptr %59, i32 0, i32 0
  %61 = load ptr, ptr %60, align 8, !tbaa !13
  store ptr %61, ptr %7, align 8, !tbaa !22
  call void @llvm.lifetime.start.p0(i64 4, ptr %8) #10
  %62 = load ptr, ptr %3, align 8, !tbaa !4
  %63 = getelementptr inbounds nuw %struct._ir_strtab, ptr %62, i32 0, i32 3
  %64 = load i32, ptr %63, align 8, !tbaa !17
  store i32 %64, ptr %8, align 4, !tbaa !9
  br label %65

65:                                               ; preds = %76, %52
  %66 = load i32, ptr %8, align 4, !tbaa !9
  %67 = icmp ugt i32 %66, 0
  br i1 %67, label %68, label %79

68:                                               ; preds = %65
  %69 = load i64, ptr %6, align 8, !tbaa !30
  %70 = load ptr, ptr %7, align 8, !tbaa !22
  %71 = getelementptr inbounds nuw %struct._ir_strtab_bucket, ptr %70, i32 0, i32 2
  %72 = load ptr, ptr %71, align 8, !tbaa !27
  %73 = getelementptr inbounds i8, ptr %72, i64 %69
  store ptr %73, ptr %71, align 8, !tbaa !27
  %74 = load ptr, ptr %7, align 8, !tbaa !22
  %75 = getelementptr inbounds nuw %struct._ir_strtab_bucket, ptr %74, i32 1
  store ptr %75, ptr %7, align 8, !tbaa !22
  br label %76

76:                                               ; preds = %68
  %77 = load i32, ptr %8, align 4, !tbaa !9
  %78 = add i32 %77, -1
  store i32 %78, ptr %8, align 4, !tbaa !9
  br label %65

79:                                               ; preds = %65
  call void @llvm.lifetime.end.p0(i64 4, ptr %8) #10
  call void @llvm.lifetime.end.p0(i64 8, ptr %7) #10
  call void @llvm.lifetime.end.p0(i64 8, ptr %6) #10
  br label %80

80:                                               ; preds = %79, %35
  call void @llvm.lifetime.end.p0(i64 8, ptr %5) #10
  ret void
}