; Function Attrs: nounwind uwtable
define internal fastcc void @ir_strtab_grow_buf(ptr noundef captures(none) %0, i32 noundef %1) unnamed_addr #0 {
  %3 = getelementptr inbounds nuw i8, ptr %0, i64 24
  %4 = load ptr, ptr %3, align 8, !tbaa !15
  %5 = getelementptr inbounds nuw i8, ptr %0, i64 32
  %6 = getelementptr inbounds nuw i8, ptr %0, i64 36
  %7 = load i32, ptr %6, align 4, !tbaa !17
  %8 = add i32 %1, 1
  %.promoted = load i32, ptr %5, align 8, !tbaa !16
  br label %9

9:                                                ; preds = %9, %2
  %10 = phi i32 [ %11, %9 ], [ %.promoted, %2 ]
  %11 = shl i32 %10, 1
  %12 = sub i32 %11, %7
  %13 = icmp ult i32 %12, %8
  br i1 %13, label %9, label %14, !prof !26

14:                                               ; preds = %9
  store i32 %11, ptr %5, align 8, !tbaa !16
  %15 = zext i32 %11 to i64
  %16 = tail call ptr @_erealloc(ptr noundef %4, i64 noundef %15) #13
  store ptr %16, ptr %3, align 8, !tbaa !15
  %.not = icmp eq ptr %16, %4
  br i1 %.not, label %.loopexit, label %17

17:                                               ; preds = %14
  %18 = ptrtoint ptr %4 to i64
  %19 = ptrtoint ptr %16 to i64
  %20 = sub nsw i64 %19, %18
  %21 = getelementptr inbounds nuw i8, ptr %0, i64 16
  %22 = load i32, ptr %21, align 8, !tbaa !13
  %.not2123 = icmp eq i32 %22, 0
  br i1 %.not2123, label %.loopexit, label %.lr.ph.preheader

.lr.ph.preheader:                                 ; preds = %17
  %23 = load ptr, ptr %0, align 8, !tbaa !4
  br label %.lr.ph

.lr.ph:                                           ; preds = %.lr.ph.preheader, %.lr.ph
  %.025 = phi i32 [ %28, %.lr.ph ], [ %22, %.lr.ph.preheader ]
  %.01824 = phi ptr [ %27, %.lr.ph ], [ %23, %.lr.ph.preheader ]
  %24 = getelementptr inbounds nuw i8, ptr %.01824, i64 8
  %25 = load ptr, ptr %24, align 8, !tbaa !23
  %26 = getelementptr inbounds i8, ptr %25, i64 %20
  store ptr %26, ptr %24, align 8, !tbaa !23
  %27 = getelementptr inbounds nuw i8, ptr %.01824, i64 24
  %28 = add i32 %.025, -1
  %.not21 = icmp eq i32 %28, 0
  br i1 %.not21, label %.loopexit, label %.lr.ph

.loopexit:                                        ; preds = %.lr.ph, %17, %14
  ret void
}